target datalayout = "e-m:e-p270:32:32-p271:32:32-p272:64:64-i64:64-i128:128-f80:128-n8:16:32:64-S128"
target triple = "x86_64-pc-linux-gnu"

%"class.metaspace::Metachunk" = type { ptr, i64, i64, i8, i8, ptr, ptr, ptr, ptr, ptr }

@.str.4 = private unnamed_addr constant [105 x i8] c"Chunk @0x%016lx, state %c, base 0x%016lx, level lv%.2d (%lu words), used %lu words, committed %lu words.\00", align 1

; Function Attrs: mustprogress nounwind uwtable
define linkonce_odr hidden noundef i64 @_ZNK9metaspace9Metachunk15committed_wordsEv(ptr noundef nonnull align 8 dereferenceable(72) %0) #1 comdat align 2 {
  %2 = alloca ptr, align 8
  store ptr %0, ptr %2, align 8
  %3 = load ptr, ptr %2, align 8
  %4 = getelementptr inbounds %"class.metaspace::Metachunk", ptr %3, i32 0, i32 2
  %5 = load i64, ptr %4, align 8
  ret i64 %5
}

; Function Attrs: mustprogress nounwind uwtable
define linkonce_odr hidden noundef i64 @_ZNK9metaspace9Metachunk10used_wordsEv(ptr noundef nonnull align 8 dereferenceable(72) %0) #1 comdat align 2 {
  %2 = alloca ptr, align 8
  store ptr %0, ptr %2, align 8
  %3 = load ptr, ptr %2, align 8
  %4 = getelementptr inbounds %"class.metaspace::Metachunk", ptr %3, i32 0, i32 1
  %5 = load i64, ptr %4, align 8
  ret i64 %5
}

; Function Attrs: mustprogress nounwind uwtable
define linkonce_odr hidden noundef i64 @_ZN9metaspace10chunklevel19word_size_for_levelEa(i8 noundef signext %0) #1 comdat {
  %2 = alloca i8, align 1
  store i8 %0, ptr %2, align 1
  %3 = load i8, ptr %2, align 1
  %4 = sext i8 %3 to i32
  %5 = zext i32 %4 to i64
  %6 = lshr i64 16777216, %5
  %7 = udiv i64 %6, 8
  ret i64 %7
}

; Function Attrs: mustprogress nounwind uwtable
define linkonce_odr hidden noundef zeroext i1 @_ZN9metaspace10chunklevel14is_valid_levelEa(i8 noundef signext %0) #1 comdat {
  %2 = alloca i8, align 1
  store i8 %0, ptr %2, align 1
  %3 = load i8, ptr %2, align 1
  %4 = sext i8 %3 to i32
  %5 = icmp sge i32 %4, 0
  br i1 %5, label %6, label %10

6:                                                ; preds = %1
  %7 = load i8, ptr %2, align 1
  %8 = sext i8 %7 to i32
  %9 = icmp sle i32 %8, 14
  br label %10

10:                                               ; preds = %6, %1
  %11 = phi i1 [ false, %1 ], [ %9, %6 ]
  ret i1 %11
}

; Function Attrs: mustprogress nounwind uwtable
define linkonce_odr hidden noundef signext i8 @_ZNK9metaspace9Metachunk5levelEv(ptr noundef nonnull align 8 dereferenceable(72) %0) #1 comdat align 2 {
  %2 = alloca ptr, align 8
  store ptr %0, ptr %2, align 8
  %3 = load ptr, ptr %2, align 8
  %4 = getelementptr inbounds %"class.metaspace::Metachunk", ptr %3, i32 0, i32 3
  %5 = load i8, ptr %4, align 8
  ret i8 %5
}

; Function Attrs: mustprogress nounwind uwtable
define linkonce_odr hidden noundef ptr @_ZNK9metaspace9Metachunk4baseEv(ptr noundef nonnull align 8 dereferenceable(72) %0) #1 comdat align 2 {
  %2 = alloca ptr, align 8
  store ptr %0, ptr %2, align 8
  %3 = load ptr, ptr %2, align 8
  %4 = getelementptr inbounds %"class.metaspace::Metachunk", ptr %3, i32 0, i32 0
  %5 = load ptr, ptr %4, align 8
  ret ptr %5
}

; Function Attrs: mustprogress nounwind uwtable
define hidden noundef signext i8 @_ZNK9metaspace9Metachunk14get_state_charEv(ptr noundef nonnull align 8 dereferenceable(72) %0) #1 align 2 {
  %2 = alloca i8, align 1
  %3 = alloca ptr, align 8
  store ptr %0, ptr %3, align 8
  %4 = load ptr, ptr %3, align 8
  %5 = getelementptr inbounds %"class.metaspace::Metachunk", ptr %4, i32 0, i32 4
  %6 = load i8, ptr %5, align 1
  switch i8 %6, label %10 [
    i8 0, label %7
    i8 1, label %8
    i8 2, label %9
  ]

7:                                                ; preds = %1
  store i8 102, ptr %2, align 1
  br label %11

8:                                                ; preds = %1
  store i8 117, ptr %2, align 1
  br label %11

9:                                                ; preds = %1
  store i8 100, ptr %2, align 1
  br label %11

10:                                               ; preds = %1
  store i8 63, ptr %2, align 1
  br label %11

11:                                               ; preds = %10, %9, %8, %7
  %12 = load i8, ptr %2, align 1
  ret i8 %12
}

; Function Attrs: mustprogress nounwind uwtable
define linkonce_odr hidden noundef i64 @_Z3p2iPVKv(ptr noundef %0) #1 comdat {
  %2 = alloca ptr, align 8
  store ptr %0, ptr %2, align 8
  %3 = load ptr, ptr %2, align 8
  %4 = ptrtoint ptr %3 to i64
  ret i64 %4
}

; Function Attrs: mustprogress nounwind uwtable
define hidden void @_ZNK9metaspace9Metachunk8print_onEP12outputStream(ptr noundef nonnull align 8 dereferenceable(72) %0, ptr noundef %1) #1 align 2 {
  %3 = alloca ptr, align 8
  %4 = alloca ptr, align 8
  store ptr %0, ptr %3, align 8
  store ptr %1, ptr %4, align 8
  %5 = load ptr, ptr %3, align 8
  %6 = load ptr, ptr %4, align 8
  %7 = call noundef i64 @_Z3p2iPVKv(ptr noundef %5)
  %8 = call noundef signext i8 @_ZNK9metaspace9Metachunk14get_state_charEv(ptr noundef nonnull align 8 dereferenceable(72) %5)
  %9 = sext i8 %8 to i32
  %10 = call noundef ptr @_ZNK9metaspace9Metachunk4baseEv(ptr noundef nonnull align 8 dereferenceable(72) %5)
  %11 = call noundef i64 @_Z3p2iPVKv(ptr noundef %10)
  %12 = call noundef signext i8 @_ZNK9metaspace9Metachunk5levelEv(ptr noundef nonnull align 8 dereferenceable(72) %5)
  %13 = sext i8 %12 to i32
  %14 = call noundef signext i8 @_ZNK9metaspace9Metachunk5levelEv(ptr noundef nonnull align 8 dereferenceable(72) %5)
  %15 = call noundef zeroext i1 @_ZN9metaspace10chunklevel14is_valid_levelEa(i8 noundef signext %14)
  br i1 %15, label %16, label %19

16:                                               ; preds = %2
  %17 = call noundef signext i8 @_ZNK9metaspace9Metachunk5levelEv(ptr noundef nonnull align 8 dereferenceable(72) %5)
  %18 = call noundef i64 @_ZN9metaspace10chunklevel19word_size_for_levelEa(i8 noundef signext %17)
  br label %20

19:                                               ; preds = %2
  br label %20

20:                                               ; preds = %19, %16
  %21 = phi i64 [ %18, %16 ], [ -1, %19 ]
  %22 = call noundef i64 @_ZNK9metaspace9Metachunk10used_wordsEv(ptr noundef nonnull align 8 dereferenceable(72) %5)
  %23 = call noundef i64 @_ZNK9metaspace9Metachunk15committed_wordsEv(ptr noundef nonnull align 8 dereferenceable(72) %5)
  call void (ptr, ptr, ...) @_ZN12outputStream5printEPKcz(ptr noundef nonnull align 8 dereferenceable(56) %6, ptr noundef @.str.4, i64 noundef %7, i32 noundef %9, i64 noundef %11, i32 noundef %13, i64 noundef %21, i64 noundef %22, i64 noundef %23)
  ret void
}