; Function Attrs: mustprogress nounwind uwtable
define hidden void @_ZNK9metaspace9Metachunk8print_onEP12outputStream(ptr noundef nonnull align 8 dereferenceable(72) %0, ptr noundef %1) local_unnamed_addr #1 align 2 {
  %3 = getelementptr inbounds i8, ptr %0, i64 25
  %4 = load i8, ptr %3, align 1
  %5 = icmp ult i8 %4, 3
  br i1 %5, label %switch.lookup, label %_ZNK9metaspace9Metachunk14get_state_charEv.exit

switch.lookup:                                    ; preds = %2
  %6 = zext nneg i8 %4 to i64
  %switch.gep = getelementptr inbounds [3 x i32], ptr @switch.table._ZNK9metaspace9Metachunk8print_onEP12outputStream, i64 0, i64 %6
  %switch.load = load i32, ptr %switch.gep, align 4
  br label %_ZNK9metaspace9Metachunk14get_state_charEv.exit

_ZNK9metaspace9Metachunk14get_state_charEv.exit:  ; preds = %2, %switch.lookup
  %.0.i = phi i32 [ %switch.load, %switch.lookup ], [ 63, %2 ]
  %7 = ptrtoint ptr %0 to i64
  %8 = load ptr, ptr %0, align 8
  %9 = ptrtoint ptr %8 to i64
  %10 = getelementptr inbounds i8, ptr %0, i64 24
  %11 = load i8, ptr %10, align 8
  %12 = icmp ult i8 %11, 15
  %13 = zext nneg i8 %11 to i64
  %14 = lshr i64 2097152, %13
  %15 = select i1 %12, i64 %14, i64 -1
  %16 = sext i8 %11 to i32
  %17 = getelementptr inbounds i8, ptr %0, i64 8
  %18 = load i64, ptr %17, align 8
  %19 = getelementptr inbounds i8, ptr %0, i64 16
  %20 = load i64, ptr %19, align 8
  tail call void (ptr, ptr, ...) @_ZN12outputStream5printEPKcz(ptr noundef nonnull align 8 dereferenceable(56) %1, ptr noundef nonnull @.str.4, i64 noundef %7, i32 noundef %.0.i, i64 noundef %9, i32 noundef %16, i64 noundef %15, i64 noundef %18, i64 noundef %20) #7
  ret void
}